target datalayout = "e-m:e-p270:32:32-p271:32:32-p272:64:64-i64:64-i128:128-f80:128-n8:16:32:64-S128"
target triple = "x86_64-pc-linux-gnu"

%struct.yy_buffer_state = type { ptr, ptr, ptr, i32, i32, i32, i32, i32, i32, i32, i32, i32 }

@.str.15 = private unnamed_addr constant [44 x i8] c"out of dynamic memory in yy_create_buffer()\00", align 1

; Function Attrs: mustprogress nounwind uwtable
define noundef ptr @_Z24frontend_verilog_yyallocm(i64 noundef %0) #4 {
  %2 = alloca i64, align 8
  store i64 %0, ptr %2, align 8, !tbaa !33
  %3 = load i64, ptr %2, align 8, !tbaa !33
  %4 = call noalias ptr @malloc(i64 noundef %3) #29
  ret ptr %4
}

; Function Attrs: mustprogress uwtable
define noundef ptr @_Z33frontend_verilog_yy_create_bufferP8_IO_FILEi(ptr noundef %0, i32 noundef %1) #5 {
  %3 = alloca ptr, align 8
  %4 = alloca i32, align 4
  %5 = alloca ptr, align 8
  store ptr %0, ptr %3, align 8, !tbaa !28
  store i32 %1, ptr %4, align 4, !tbaa !25
  call void @llvm.lifetime.start.p0(i64 8, ptr %5) #3
  %6 = call noundef ptr @_Z24frontend_verilog_yyallocm(i64 noundef 64)
  store ptr %6, ptr %5, align 8, !tbaa !35
  %7 = load ptr, ptr %5, align 8, !tbaa !35
  %8 = icmp ne ptr %7, null
  br i1 %8, label %10, label %9

9:                                                ; preds = %2
  call void @_ZL14yy_fatal_errorPKc(ptr noundef @.str.15) #25
  unreachable

10:                                               ; preds = %2
  %11 = load i32, ptr %4, align 4, !tbaa !25
  %12 = load ptr, ptr %5, align 8, !tbaa !35
  %13 = getelementptr inbounds nuw %struct.yy_buffer_state, ptr %12, i32 0, i32 3
  store i32 %11, ptr %13, align 8, !tbaa !259
  %14 = load ptr, ptr %5, align 8, !tbaa !35
  %15 = getelementptr inbounds nuw %struct.yy_buffer_state, ptr %14, i32 0, i32 3
  %16 = load i32, ptr %15, align 8, !tbaa !259
  %17 = add nsw i32 %16, 2
  %18 = sext i32 %17 to i64
  %19 = call noundef ptr @_Z24frontend_verilog_yyallocm(i64 noundef %18)
  %20 = load ptr, ptr %5, align 8, !tbaa !35
  %21 = getelementptr inbounds nuw %struct.yy_buffer_state, ptr %20, i32 0, i32 1
  store ptr %19, ptr %21, align 8, !tbaa !257
  %22 = load ptr, ptr %5, align 8, !tbaa !35
  %23 = getelementptr inbounds nuw %struct.yy_buffer_state, ptr %22, i32 0, i32 1
  %24 = load ptr, ptr %23, align 8, !tbaa !257
  %25 = icmp ne ptr %24, null
  br i1 %25, label %27, label %26

26:                                               ; preds = %10
  call void @_ZL14yy_fatal_errorPKc(ptr noundef @.str.15) #25
  unreachable

27:                                               ; preds = %10
  %28 = load ptr, ptr %5, align 8, !tbaa !35
  %29 = getelementptr inbounds nuw %struct.yy_buffer_state, ptr %28, i32 0, i32 5
  store i32 1, ptr %29, align 8, !tbaa !260
  %30 = load ptr, ptr %5, align 8, !tbaa !35
  %31 = load ptr, ptr %3, align 8, !tbaa !28
  call void @_ZL31frontend_verilog_yy_init_bufferP15yy_buffer_stateP8_IO_FILE(ptr noundef %30, ptr noundef %31)
  %32 = load ptr, ptr %5, align 8, !tbaa !35
  call void @llvm.lifetime.end.p0(i64 8, ptr %5) #3
  ret ptr %32
}