; Function Attrs: mustprogress nounwind uwtable
define noundef nonnull ptr @_Z33frontend_verilog_yy_create_bufferP8_IO_FILEi(ptr noundef %0, i32 noundef %1) local_unnamed_addr #3 {
  %3 = tail call noalias noundef dereferenceable_or_null(64) ptr @malloc(i64 noundef 64) #39
  %.not = icmp eq ptr %3, null
  br i1 %.not, label %4, label %5

4:                                                ; preds = %2
  tail call fastcc void @_ZL14yy_fatal_errorPKc(ptr noundef nonnull @.str.15) #40
  unreachable

5:                                                ; preds = %2
  %6 = getelementptr inbounds nuw i8, ptr %3, i64 24
  store i32 %1, ptr %6, align 8, !tbaa !38
  %7 = add nsw i32 %1, 2
  %8 = sext i32 %7 to i64
  %9 = tail call noalias noundef ptr @malloc(i64 noundef %8) #39
  %10 = getelementptr inbounds nuw i8, ptr %3, i64 8
  store ptr %9, ptr %10, align 8, !tbaa !40
  %.not9 = icmp eq ptr %9, null
  br i1 %.not9, label %11, label %12

11:                                               ; preds = %5
  tail call fastcc void @_ZL14yy_fatal_errorPKc(ptr noundef nonnull @.str.15) #40
  unreachable

12:                                               ; preds = %5
  %13 = getelementptr inbounds nuw i8, ptr %3, i64 32
  store i32 1, ptr %13, align 8, !tbaa !41
  tail call fastcc void @_ZL31frontend_verilog_yy_init_bufferP15yy_buffer_stateP8_IO_FILE(ptr noundef nonnull %3, ptr noundef %0)
  ret ptr %3
}